; Function Attrs: mustprogress nofree nounwind memory(write, argmem: readwrite) uwtable
define hidden void @_ZNK19OpenColorIO_v2_5dev15Log2LinRenderer5applyEPKvPvl(ptr noundef nonnull readonly align 8 captures(none) dereferenceable(136) %0, ptr noundef readonly captures(none) %1, ptr noundef captures(none) %2, i64 noundef %3) unnamed_addr #11 align 2 {
  %5 = icmp sgt i64 %3, 0
  br i1 %5, label %.lr.ph, label %._crit_edge

.lr.ph:                                           ; preds = %4
  %6 = getelementptr inbounds nuw i8, ptr %0, i64 100
  %7 = getelementptr inbounds nuw i8, ptr %0, i64 104
  %8 = getelementptr inbounds nuw i8, ptr %0, i64 108
  %9 = getelementptr inbounds nuw i8, ptr %0, i64 88
  %10 = getelementptr inbounds nuw i8, ptr %0, i64 92
  %11 = getelementptr inbounds nuw i8, ptr %0, i64 96
  %12 = getelementptr inbounds nuw i8, ptr %0, i64 112
  %13 = getelementptr inbounds nuw i8, ptr %0, i64 116
  %14 = getelementptr inbounds nuw i8, ptr %0, i64 120
  %15 = getelementptr inbounds nuw i8, ptr %0, i64 124
  %16 = getelementptr inbounds nuw i8, ptr %0, i64 128
  %17 = getelementptr inbounds nuw i8, ptr %0, i64 132
  br label %18

._crit_edge:                                      ; preds = %18, %4
  ret void

18:                                               ; preds = %.lr.ph, %18
  %.021 = phi ptr [ %1, %.lr.ph ], [ %55, %18 ]
  %.01720 = phi i64 [ 0, %.lr.ph ], [ %56, %18 ]
  %.01819 = phi ptr [ %2, %.lr.ph ], [ %54, %18 ]
  %19 = getelementptr inbounds nuw i8, ptr %.021, i64 12
  %20 = load float, ptr %19, align 4, !tbaa !111
  tail call void @llvm.memcpy.p0.p0.i64(ptr noundef nonnull align 4 dereferenceable(16) %.01819, ptr noundef nonnull align 4 dereferenceable(16) %.021, i64 16, i1 false)
  %21 = load float, ptr %.01819, align 4, !tbaa !111
  %22 = load float, ptr %6, align 4, !tbaa !111
  %23 = fadd float %21, %22
  store float %23, ptr %.01819, align 4, !tbaa !111
  %24 = getelementptr inbounds nuw i8, ptr %.01819, i64 4
  %25 = load float, ptr %24, align 4, !tbaa !111
  %26 = load float, ptr %7, align 8, !tbaa !111
  %27 = fadd float %25, %26
  store float %27, ptr %24, align 4, !tbaa !111
  %28 = getelementptr inbounds nuw i8, ptr %.01819, i64 8
  %29 = load float, ptr %28, align 4, !tbaa !111
  %30 = load float, ptr %8, align 4, !tbaa !111
  %31 = fadd float %29, %30
  store float %31, ptr %28, align 4, !tbaa !111
  %32 = load float, ptr %9, align 8, !tbaa !111
  %33 = fmul float %23, %32
  store float %33, ptr %.01819, align 4, !tbaa !111
  %34 = load float, ptr %10, align 4, !tbaa !111
  %35 = fmul float %27, %34
  store float %35, ptr %24, align 4, !tbaa !111
  %36 = load float, ptr %11, align 8, !tbaa !111
  %37 = fmul float %31, %36
  %38 = tail call noundef float @exp2f(float noundef %33) #26, !tbaa !112
  store float %38, ptr %.01819, align 4, !tbaa !111
  %39 = tail call noundef float @exp2f(float noundef %35) #26, !tbaa !112
  store float %39, ptr %24, align 4, !tbaa !111
  %40 = tail call noundef float @exp2f(float noundef %37) #26, !tbaa !112
  store float %40, ptr %28, align 4, !tbaa !111
  %41 = load float, ptr %12, align 8, !tbaa !111
  %42 = fadd float %38, %41
  store float %42, ptr %.01819, align 4, !tbaa !111
  %43 = load float, ptr %13, align 4, !tbaa !111
  %44 = fadd float %39, %43
  store float %44, ptr %24, align 4, !tbaa !111
  %45 = load float, ptr %14, align 8, !tbaa !111
  %46 = fadd float %40, %45
  store float %46, ptr %28, align 4, !tbaa !111
  %47 = load float, ptr %15, align 4, !tbaa !111
  %48 = fmul float %42, %47
  store float %48, ptr %.01819, align 4, !tbaa !111
  %49 = load float, ptr %16, align 8, !tbaa !111
  %50 = fmul float %44, %49
  store float %50, ptr %24, align 4, !tbaa !111
  %51 = load float, ptr %17, align 4, !tbaa !111
  %52 = fmul float %46, %51
  store float %52, ptr %28, align 4, !tbaa !111
  %53 = getelementptr inbounds nuw i8, ptr %.01819, i64 12
  store float %20, ptr %53, align 4, !tbaa !111
  %54 = getelementptr inbounds nuw i8, ptr %.01819, i64 16
  %55 = getelementptr inbounds nuw i8, ptr %.021, i64 16
  %56 = add nuw nsw i64 %.01720, 1
  %exitcond.not = icmp eq i64 %56, %3
  br i1 %exitcond.not, label %._crit_edge, label %18, !llvm.loop !120
}